target datalayout = "e-m:e-p270:32:32-p271:32:32-p272:64:64-i64:64-i128:128-f80:128-n8:16:32:64-S128"
target triple = "x86_64-pc-linux-gnu"

%struct.llama_kv_cache = type { i8, i8, i8, i8, i8, i32, i32, i32, i32, i32, i32, %"class.std::vector.29", %"class.std::vector.34", %"class.std::vector.34", %"class.std::vector.39", %"class.std::vector.44" }
%"class.std::vector.29" = type { %"struct.std::_Vector_base.30" }
%"struct.std::_Vector_base.30" = type { %"struct.std::_Vector_base<llama_kv_cell, std::allocator<llama_kv_cell>>::_Vector_impl" }
%"struct.std::_Vector_base<llama_kv_cell, std::allocator<llama_kv_cell>>::_Vector_impl" = type { %"struct.std::_Vector_base<llama_kv_cell, std::allocator<llama_kv_cell>>::_Vector_impl_data" }
%"struct.std::_Vector_base<llama_kv_cell, std::allocator<llama_kv_cell>>::_Vector_impl_data" = type { ptr, ptr, ptr }
%"class.std::vector.34" = type { %"struct.std::_Vector_base.35" }
%"struct.std::_Vector_base.35" = type { %"struct.std::_Vector_base<ggml_tensor *, std::allocator<ggml_tensor *>>::_Vector_impl" }
%"struct.std::_Vector_base<ggml_tensor *, std::allocator<ggml_tensor *>>::_Vector_impl" = type { %"struct.std::_Vector_base<ggml_tensor *, std::allocator<ggml_tensor *>>::_Vector_impl_data" }
%"struct.std::_Vector_base<ggml_tensor *, std::allocator<ggml_tensor *>>::_Vector_impl_data" = type { ptr, ptr, ptr }
%"class.std::vector.39" = type { %"struct.std::_Vector_base.40" }
%"struct.std::_Vector_base.40" = type { %"struct.std::_Vector_base<std::unique_ptr<ggml_context, ggml_context_deleter>, std::allocator<std::unique_ptr<ggml_context, ggml_context_deleter>>>::_Vector_impl" }
%"struct.std::_Vector_base<std::unique_ptr<ggml_context, ggml_context_deleter>, std::allocator<std::unique_ptr<ggml_context, ggml_context_deleter>>>::_Vector_impl" = type { %"struct.std::_Vector_base<std::unique_ptr<ggml_context, ggml_context_deleter>, std::allocator<std::unique_ptr<ggml_context, ggml_context_deleter>>>::_Vector_impl_data" }
%"struct.std::_Vector_base<std::unique_ptr<ggml_context, ggml_context_deleter>, std::allocator<std::unique_ptr<ggml_context, ggml_context_deleter>>>::_Vector_impl_data" = type { ptr, ptr, ptr }
%"class.std::vector.44" = type { %"struct.std::_Vector_base.45" }
%"struct.std::_Vector_base.45" = type { %"struct.std::_Vector_base<std::unique_ptr<ggml_backend_buffer, ggml_backend_buffer_deleter>, std::allocator<std::unique_ptr<ggml_backend_buffer, ggml_backend_buffer_deleter>>>::_Vector_impl" }
%"struct.std::_Vector_base<std::unique_ptr<ggml_backend_buffer, ggml_backend_buffer_deleter>, std::allocator<std::unique_ptr<ggml_backend_buffer, ggml_backend_buffer_deleter>>>::_Vector_impl" = type { %"struct.std::_Vector_base<std::unique_ptr<ggml_backend_buffer, ggml_backend_buffer_deleter>, std::allocator<std::unique_ptr<ggml_backend_buffer, ggml_backend_buffer_deleter>>>::_Vector_impl_data" }
%"struct.std::_Vector_base<std::unique_ptr<ggml_backend_buffer, ggml_backend_buffer_deleter>, std::allocator<std::unique_ptr<ggml_backend_buffer, ggml_backend_buffer_deleter>>>::_Vector_impl_data" = type { ptr, ptr, ptr }
%struct.llama_kv_cache_view = type { i32, i32, i32, i32, i32, i32, ptr, ptr }

; Function Attrs: mustprogress nounwind uwtable
define noundef i32 @_Z29llama_get_kv_cache_used_cellsRK14llama_kv_cache(ptr noundef nonnull align 8 dereferenceable(152) %0) #3 {
  %2 = alloca ptr, align 8
  store ptr %0, ptr %2, align 8, !tbaa !22
  %3 = load ptr, ptr %2, align 8, !tbaa !22
  %4 = getelementptr inbounds nuw %struct.llama_kv_cache, ptr %3, i32 0, i32 7
  %5 = load i32, ptr %4, align 8, !tbaa !116
  ret i32 %5
}

; Function Attrs: mustprogress nounwind uwtable
define void @_Z24llama_kv_cache_view_initRK14llama_kv_cachei(ptr dead_on_unwind noalias writable sret(%struct.llama_kv_cache_view) align 8 %0, ptr noundef nonnull align 8 dereferenceable(152) %1, i32 noundef %2) #3 {
  %4 = alloca ptr, align 8
  %5 = alloca i32, align 4
  store ptr %1, ptr %4, align 8, !tbaa !22
  store i32 %2, ptr %5, align 4, !tbaa !28
  %6 = getelementptr inbounds nuw %struct.llama_kv_cache_view, ptr %0, i32 0, i32 0
  store i32 0, ptr %6, align 8, !tbaa !229
  %7 = getelementptr inbounds nuw %struct.llama_kv_cache_view, ptr %0, i32 0, i32 1
  %8 = load i32, ptr %5, align 4, !tbaa !28
  store i32 %8, ptr %7, align 4, !tbaa !232
  %9 = getelementptr inbounds nuw %struct.llama_kv_cache_view, ptr %0, i32 0, i32 2
  store i32 0, ptr %9, align 8, !tbaa !233
  %10 = getelementptr inbounds nuw %struct.llama_kv_cache_view, ptr %0, i32 0, i32 3
  %11 = load ptr, ptr %4, align 8, !tbaa !22
  %12 = call noundef i32 @_Z29llama_get_kv_cache_used_cellsRK14llama_kv_cache(ptr noundef nonnull align 8 dereferenceable(152) %11)
  store i32 %12, ptr %10, align 4, !tbaa !234
  %13 = getelementptr inbounds nuw %struct.llama_kv_cache_view, ptr %0, i32 0, i32 4
  store i32 0, ptr %13, align 8, !tbaa !235
  %14 = getelementptr inbounds nuw %struct.llama_kv_cache_view, ptr %0, i32 0, i32 5
  store i32 -1, ptr %14, align 4, !tbaa !236
  %15 = getelementptr inbounds nuw %struct.llama_kv_cache_view, ptr %0, i32 0, i32 6
  store ptr null, ptr %15, align 8, !tbaa !237
  %16 = getelementptr inbounds nuw %struct.llama_kv_cache_view, ptr %0, i32 0, i32 7
  store ptr null, ptr %16, align 8, !tbaa !238
  ret void
}