; Function Attrs: mustprogress nofree norecurse nosync nounwind willreturn memory(argmem: readwrite) uwtable
define void @_Z24llama_kv_cache_view_initRK14llama_kv_cachei(ptr dead_on_unwind noalias writable writeonly sret(%struct.llama_kv_cache_view) align 8 captures(none) initializes((0, 40)) %0, ptr noundef nonnull readonly align 8 captures(none) dereferenceable(152) %1, i32 noundef %2) local_unnamed_addr #9 {
  store i32 0, ptr %0, align 8, !tbaa !165
  %4 = getelementptr inbounds nuw i8, ptr %0, i64 4
  store i32 %2, ptr %4, align 4, !tbaa !168
  %5 = getelementptr inbounds nuw i8, ptr %0, i64 8
  store i32 0, ptr %5, align 8, !tbaa !169
  %6 = getelementptr inbounds nuw i8, ptr %0, i64 12
  %7 = getelementptr inbounds nuw i8, ptr %1, i64 16
  %8 = load i32, ptr %7, align 8, !tbaa !51
  store i32 %8, ptr %6, align 4, !tbaa !170
  %9 = getelementptr inbounds nuw i8, ptr %0, i64 16
  store i32 0, ptr %9, align 8, !tbaa !171
  %10 = getelementptr inbounds nuw i8, ptr %0, i64 20
  store i32 -1, ptr %10, align 4, !tbaa !172
  %11 = getelementptr inbounds nuw i8, ptr %0, i64 24
  tail call void @llvm.memset.p0.i64(ptr noundef nonnull align 8 dereferenceable(16) %11, i8 0, i64 16, i1 false)
  ret void
}